target datalayout = "e-m:e-p270:32:32-p271:32:32-p272:64:64-i64:64-i128:128-f80:128-n8:16:32:64-S128"
target triple = "x86_64-pc-linux-gnu"

%struct._dtd_build_data_t = type { ptr, ptr, ptr, ptr, i8, ptr, ptr, ptr }
%struct._GPtrArray = type { ptr, i32 }
%struct._dtd_named_list_t = type { ptr, ptr }

; Function Attrs: null_pointer_is_valid sspstrong uwtable
define internal void @destroy_dtd_data(ptr noundef %0) #3 {
  %2 = alloca ptr, align 8
  %3 = alloca ptr, align 8
  %4 = alloca ptr, align 8
  store ptr %0, ptr %2, align 8
  %5 = load ptr, ptr %2, align 8
  %6 = getelementptr inbounds nuw %struct._dtd_build_data_t, ptr %5, i32 0, i32 0
  %7 = load ptr, ptr %6, align 8
  call void @g_free(ptr noundef %7)
  %8 = load ptr, ptr %2, align 8
  %9 = getelementptr inbounds nuw %struct._dtd_build_data_t, ptr %8, i32 0, i32 1
  %10 = load ptr, ptr %9, align 8
  call void @g_free(ptr noundef %10)
  %11 = load ptr, ptr %2, align 8
  %12 = getelementptr inbounds nuw %struct._dtd_build_data_t, ptr %11, i32 0, i32 2
  %13 = load ptr, ptr %12, align 8
  call void @g_free(ptr noundef %13)
  %14 = load ptr, ptr %2, align 8
  %15 = getelementptr inbounds nuw %struct._dtd_build_data_t, ptr %14, i32 0, i32 3
  %16 = load ptr, ptr %15, align 8
  call void @g_free(ptr noundef %16)
  %17 = load ptr, ptr %2, align 8
  %18 = getelementptr inbounds nuw %struct._dtd_build_data_t, ptr %17, i32 0, i32 7
  %19 = load ptr, ptr %18, align 8
  %20 = call ptr @g_string_free(ptr noundef %19, i32 noundef 1)
  br label %21

21:                                               ; preds = %28, %1
  %22 = load ptr, ptr %2, align 8
  %23 = getelementptr inbounds nuw %struct._dtd_build_data_t, ptr %22, i32 0, i32 5
  %24 = load ptr, ptr %23, align 8
  %25 = getelementptr inbounds nuw %struct._GPtrArray, ptr %24, i32 0, i32 1
  %26 = load i32, ptr %25, align 8
  %27 = icmp ne i32 %26, 0
  br i1 %27, label %28, label %41

28:                                               ; preds = %21
  call void @llvm.lifetime.start.p0(i64 8, ptr %3) #10
  %29 = load ptr, ptr %2, align 8
  %30 = getelementptr inbounds nuw %struct._dtd_build_data_t, ptr %29, i32 0, i32 5
  %31 = load ptr, ptr %30, align 8
  %32 = call ptr @g_ptr_array_remove_index_fast(ptr noundef %31, i32 noundef 0)
  store ptr %32, ptr %3, align 8
  %33 = load ptr, ptr %3, align 8
  %34 = getelementptr inbounds nuw %struct._dtd_named_list_t, ptr %33, i32 0, i32 1
  %35 = load ptr, ptr %34, align 8
  %36 = call ptr @g_ptr_array_free(ptr noundef %35, i32 noundef 1)
  %37 = load ptr, ptr %3, align 8
  %38 = getelementptr inbounds nuw %struct._dtd_named_list_t, ptr %37, i32 0, i32 0
  %39 = load ptr, ptr %38, align 8
  call void @g_free(ptr noundef %39)
  %40 = load ptr, ptr %3, align 8
  call void @g_free(ptr noundef %40)
  call void @llvm.lifetime.end.p0(i64 8, ptr %3) #10
  br label %21, !llvm.loop !16

41:                                               ; preds = %21
  %42 = load ptr, ptr %2, align 8
  %43 = getelementptr inbounds nuw %struct._dtd_build_data_t, ptr %42, i32 0, i32 5
  %44 = load ptr, ptr %43, align 8
  %45 = call ptr @g_ptr_array_free(ptr noundef %44, i32 noundef 1)
  br label %46

46:                                               ; preds = %53, %41
  %47 = load ptr, ptr %2, align 8
  %48 = getelementptr inbounds nuw %struct._dtd_build_data_t, ptr %47, i32 0, i32 6
  %49 = load ptr, ptr %48, align 8
  %50 = getelementptr inbounds nuw %struct._GPtrArray, ptr %49, i32 0, i32 1
  %51 = load i32, ptr %50, align 8
  %52 = icmp ne i32 %51, 0
  br i1 %52, label %53, label %66

53:                                               ; preds = %46
  call void @llvm.lifetime.start.p0(i64 8, ptr %4) #10
  %54 = load ptr, ptr %2, align 8
  %55 = getelementptr inbounds nuw %struct._dtd_build_data_t, ptr %54, i32 0, i32 6
  %56 = load ptr, ptr %55, align 8
  %57 = call ptr @g_ptr_array_remove_index_fast(ptr noundef %56, i32 noundef 0)
  store ptr %57, ptr %4, align 8
  %58 = load ptr, ptr %4, align 8
  %59 = getelementptr inbounds nuw %struct._dtd_named_list_t, ptr %58, i32 0, i32 1
  %60 = load ptr, ptr %59, align 8
  %61 = call ptr @g_ptr_array_free(ptr noundef %60, i32 noundef 1)
  %62 = load ptr, ptr %4, align 8
  %63 = getelementptr inbounds nuw %struct._dtd_named_list_t, ptr %62, i32 0, i32 0
  %64 = load ptr, ptr %63, align 8
  call void @g_free(ptr noundef %64)
  %65 = load ptr, ptr %4, align 8
  call void @g_free(ptr noundef %65)
  call void @llvm.lifetime.end.p0(i64 8, ptr %4) #10
  br label %46, !llvm.loop !17

66:                                               ; preds = %46
  %67 = load ptr, ptr %2, align 8
  %68 = getelementptr inbounds nuw %struct._dtd_build_data_t, ptr %67, i32 0, i32 6
  %69 = load ptr, ptr %68, align 8
  %70 = call ptr @g_ptr_array_free(ptr noundef %69, i32 noundef 1)
  %71 = load ptr, ptr %2, align 8
  call void @g_free(ptr noundef %71)
  ret void
}