; Function Attrs: null_pointer_is_valid sspstrong uwtable
define internal fastcc void @destroy_dtd_data(ptr noundef %0) unnamed_addr #4 {
  %2 = load ptr, ptr %0, align 8
  tail call void @g_free(ptr noundef %2)
  %3 = getelementptr inbounds nuw i8, ptr %0, i64 8
  %4 = load ptr, ptr %3, align 8
  tail call void @g_free(ptr noundef %4)
  %5 = getelementptr inbounds nuw i8, ptr %0, i64 16
  %6 = load ptr, ptr %5, align 8
  tail call void @g_free(ptr noundef %6)
  %7 = getelementptr inbounds nuw i8, ptr %0, i64 24
  %8 = load ptr, ptr %7, align 8
  tail call void @g_free(ptr noundef %8)
  %9 = getelementptr inbounds nuw i8, ptr %0, i64 56
  %10 = load ptr, ptr %9, align 8
  %11 = tail call ptr @g_string_free(ptr noundef %10, i32 noundef 1)
  %12 = getelementptr inbounds nuw i8, ptr %0, i64 40
  %13 = load ptr, ptr %12, align 8
  %14 = getelementptr inbounds nuw i8, ptr %13, i64 8
  %15 = load i32, ptr %14, align 8
  %.not20 = icmp eq i32 %15, 0
  br i1 %.not20, label %._crit_edge, label %.lr.ph

.lr.ph:                                           ; preds = %1, %.lr.ph
  %16 = phi ptr [ %22, %.lr.ph ], [ %13, %1 ]
  %17 = tail call ptr @g_ptr_array_remove_index_fast(ptr noundef %16, i32 noundef 0)
  %18 = getelementptr inbounds nuw i8, ptr %17, i64 8
  %19 = load ptr, ptr %18, align 8
  %20 = tail call ptr @g_ptr_array_free(ptr noundef %19, i32 noundef 1)
  %21 = load ptr, ptr %17, align 8
  tail call void @g_free(ptr noundef %21)
  tail call void @g_free(ptr noundef %17)
  %22 = load ptr, ptr %12, align 8
  %23 = getelementptr inbounds nuw i8, ptr %22, i64 8
  %24 = load i32, ptr %23, align 8
  %.not = icmp eq i32 %24, 0
  br i1 %.not, label %._crit_edge, label %.lr.ph, !llvm.loop !23

._crit_edge:                                      ; preds = %.lr.ph, %1
  %.lcssa19 = phi ptr [ %13, %1 ], [ %22, %.lr.ph ]
  %25 = tail call ptr @g_ptr_array_free(ptr noundef %.lcssa19, i32 noundef 1)
  %26 = getelementptr inbounds nuw i8, ptr %0, i64 48
  %27 = load ptr, ptr %26, align 8
  %28 = getelementptr inbounds nuw i8, ptr %27, i64 8
  %29 = load i32, ptr %28, align 8
  %.not1821 = icmp eq i32 %29, 0
  br i1 %.not1821, label %._crit_edge24, label %.lr.ph23

.lr.ph23:                                         ; preds = %._crit_edge, %.lr.ph23
  %30 = phi ptr [ %36, %.lr.ph23 ], [ %27, %._crit_edge ]
  %31 = tail call ptr @g_ptr_array_remove_index_fast(ptr noundef %30, i32 noundef 0)
  %32 = getelementptr inbounds nuw i8, ptr %31, i64 8
  %33 = load ptr, ptr %32, align 8
  %34 = tail call ptr @g_ptr_array_free(ptr noundef %33, i32 noundef 1)
  %35 = load ptr, ptr %31, align 8
  tail call void @g_free(ptr noundef %35)
  tail call void @g_free(ptr noundef %31)
  %36 = load ptr, ptr %26, align 8
  %37 = getelementptr inbounds nuw i8, ptr %36, i64 8
  %38 = load i32, ptr %37, align 8
  %.not18 = icmp eq i32 %38, 0
  br i1 %.not18, label %._crit_edge24, label %.lr.ph23, !llvm.loop !24

._crit_edge24:                                    ; preds = %.lr.ph23, %._crit_edge
  %.lcssa = phi ptr [ %27, %._crit_edge ], [ %36, %.lr.ph23 ]
  %39 = tail call ptr @g_ptr_array_free(ptr noundef %.lcssa, i32 noundef 1)
  tail call void @g_free(ptr noundef %0)
  ret void
}